target datalayout = "e-m:e-p270:32:32-p271:32:32-p272:64:64-i64:64-i128:128-f80:128-n8:16:32:64-S128"
target triple = "x86_64-pc-linux-gnu"

%struct.pg_compress_specification = type { i32, i32, i32, i32, i8, ptr }
%struct._archiveHandle = type { %struct.Archive, i32, ptr, ptr, i64, i64, i32, %struct.sqlparseInfo, i64, i32, ptr, i64, i64, i64, ptr, ptr, ptr, ptr, ptr, ptr, ptr, ptr, ptr, ptr, ptr, ptr, ptr, ptr, ptr, ptr, ptr, ptr, ptr, ptr, ptr, ptr, ptr, ptr, ptr, ptr, ptr, ptr, ptr, ptr, i32, i32, i8, i32, i8, i32, ptr, ptr, ptr, ptr, i32, i32, ptr, ptr, ptr, %struct.pg_compress_specification, i8, i32, i32, ptr, ptr, ptr, ptr, ptr, i32, ptr, i64, i64, i32, i32, i32, i32, ptr, ptr }
%struct.Archive = type { ptr, ptr, i32, ptr, i32, i8, i32, i32, i32, ptr, i32, i8, ptr, ptr, i8, i32, ptr }
%struct.sqlparseInfo = type { i32, i8, ptr }

; Function Attrs: nounwind uwtable
define dso_local i32 @ReadInt(ptr noundef %0) #0 {
  %2 = alloca ptr, align 8
  %3 = alloca i32, align 4
  %4 = alloca i32, align 4
  %5 = alloca i32, align 4
  %6 = alloca i32, align 4
  %7 = alloca i32, align 4
  store ptr %0, ptr %2, align 8
  call void @llvm.lifetime.start.p0(i64 4, ptr %3) #11
  store i32 0, ptr %3, align 4
  call void @llvm.lifetime.start.p0(i64 4, ptr %4) #11
  call void @llvm.lifetime.start.p0(i64 4, ptr %5) #11
  call void @llvm.lifetime.start.p0(i64 4, ptr %6) #11
  store i32 0, ptr %6, align 4
  call void @llvm.lifetime.start.p0(i64 4, ptr %7) #11
  store i32 0, ptr %7, align 4
  %8 = load ptr, ptr %2, align 8
  %9 = getelementptr inbounds nuw %struct._archiveHandle, ptr %8, i32 0, i32 1
  %10 = load i32, ptr %9, align 8
  %11 = icmp sgt i32 %10, 65536
  br i1 %11, label %12, label %18

12:                                               ; preds = %1
  %13 = load ptr, ptr %2, align 8
  %14 = getelementptr inbounds nuw %struct._archiveHandle, ptr %13, i32 0, i32 19
  %15 = load ptr, ptr %14, align 8
  %16 = load ptr, ptr %2, align 8
  %17 = call i32 %15(ptr noundef %16)
  store i32 %17, ptr %6, align 4
  br label %18

18:                                               ; preds = %12, %1
  store i32 0, ptr %5, align 4
  br label %19

19:                                               ; preds = %44, %18
  %20 = load i32, ptr %5, align 4
  %21 = sext i32 %20 to i64
  %22 = load ptr, ptr %2, align 8
  %23 = getelementptr inbounds nuw %struct._archiveHandle, ptr %22, i32 0, i32 4
  %24 = load i64, ptr %23, align 8
  %25 = icmp ult i64 %21, %24
  br i1 %25, label %26, label %47

26:                                               ; preds = %19
  %27 = load ptr, ptr %2, align 8
  %28 = getelementptr inbounds nuw %struct._archiveHandle, ptr %27, i32 0, i32 19
  %29 = load ptr, ptr %28, align 8
  %30 = load ptr, ptr %2, align 8
  %31 = call i32 %29(ptr noundef %30)
  %32 = and i32 %31, 255
  store i32 %32, ptr %4, align 4
  %33 = load i32, ptr %4, align 4
  %34 = icmp ne i32 %33, 0
  br i1 %34, label %35, label %41

35:                                               ; preds = %26
  %36 = load i32, ptr %3, align 4
  %37 = load i32, ptr %4, align 4
  %38 = load i32, ptr %7, align 4
  %39 = shl i32 %37, %38
  %40 = add i32 %36, %39
  store i32 %40, ptr %3, align 4
  br label %41

41:                                               ; preds = %35, %26
  %42 = load i32, ptr %7, align 4
  %43 = add i32 %42, 8
  store i32 %43, ptr %7, align 4
  br label %44

44:                                               ; preds = %41
  %45 = load i32, ptr %5, align 4
  %46 = add i32 %45, 1
  store i32 %46, ptr %5, align 4
  br label %19, !llvm.loop !25

47:                                               ; preds = %19
  %48 = load i32, ptr %6, align 4
  %49 = icmp ne i32 %48, 0
  br i1 %49, label %50, label %53

50:                                               ; preds = %47
  %51 = load i32, ptr %3, align 4
  %52 = sub i32 0, %51
  store i32 %52, ptr %3, align 4
  br label %53

53:                                               ; preds = %50, %47
  %54 = load i32, ptr %3, align 4
  call void @llvm.lifetime.end.p0(i64 4, ptr %7) #11
  call void @llvm.lifetime.end.p0(i64 4, ptr %6) #11
  call void @llvm.lifetime.end.p0(i64 4, ptr %5) #11
  call void @llvm.lifetime.end.p0(i64 4, ptr %4) #11
  call void @llvm.lifetime.end.p0(i64 4, ptr %3) #11
  ret i32 %54
}

; Function Attrs: nounwind uwtable
define dso_local ptr @ReadStr(ptr noundef %0) #0 {
  %2 = alloca ptr, align 8
  %3 = alloca ptr, align 8
  %4 = alloca i32, align 4
  store ptr %0, ptr %2, align 8
  call void @llvm.lifetime.start.p0(i64 8, ptr %3) #11
  call void @llvm.lifetime.start.p0(i64 4, ptr %4) #11
  %5 = load ptr, ptr %2, align 8
  %6 = call i32 @ReadInt(ptr noundef %5)
  store i32 %6, ptr %4, align 4
  %7 = load i32, ptr %4, align 4
  %8 = icmp slt i32 %7, 0
  br i1 %8, label %9, label %10

9:                                                ; preds = %1
  store ptr null, ptr %3, align 8
  br label %26

10:                                               ; preds = %1
  %11 = load i32, ptr %4, align 4
  %12 = add i32 %11, 1
  %13 = sext i32 %12 to i64
  %14 = call ptr @pg_malloc(i64 noundef %13)
  store ptr %14, ptr %3, align 8
  %15 = load ptr, ptr %2, align 8
  %16 = getelementptr inbounds nuw %struct._archiveHandle, ptr %15, i32 0, i32 21
  %17 = load ptr, ptr %16, align 8
  %18 = load ptr, ptr %2, align 8
  %19 = load ptr, ptr %3, align 8
  %20 = load i32, ptr %4, align 4
  %21 = sext i32 %20 to i64
  call void %17(ptr noundef %18, ptr noundef %19, i64 noundef %21)
  %22 = load ptr, ptr %3, align 8
  %23 = load i32, ptr %4, align 4
  %24 = sext i32 %23 to i64
  %25 = getelementptr inbounds i8, ptr %22, i64 %24
  store i8 0, ptr %25, align 1
  br label %26

26:                                               ; preds = %10, %9
  %27 = load ptr, ptr %3, align 8
  call void @llvm.lifetime.end.p0(i64 4, ptr %4) #11
  call void @llvm.lifetime.end.p0(i64 8, ptr %3) #11
  ret ptr %27
}