; Function Attrs: nounwind uwtable
define dso_local noundef ptr @ReadStr(ptr noundef %0) local_unnamed_addr #0 {
  %2 = getelementptr inbounds nuw i8, ptr %0, i64 104
  %3 = load i32, ptr %2, align 8
  %4 = icmp sgt i32 %3, 65536
  br i1 %4, label %5, label %10

5:                                                ; preds = %1
  %6 = getelementptr inbounds nuw i8, ptr %0, i64 256
  %7 = load ptr, ptr %6, align 8
  %8 = tail call i32 %7(ptr noundef nonnull %0) #22
  %9 = icmp eq i32 %8, 0
  br label %10

10:                                               ; preds = %5, %1
  %.015.i = phi i1 [ %9, %5 ], [ true, %1 ]
  %11 = getelementptr inbounds nuw i8, ptr %0, i64 128
  %12 = load i64, ptr %11, align 8
  %.not22.i = icmp eq i64 %12, 0
  br i1 %.not22.i, label %ReadInt.exit, label %.lr.ph.i

.lr.ph.i:                                         ; preds = %10
  %13 = getelementptr inbounds nuw i8, ptr %0, i64 256
  br label %14

14:                                               ; preds = %14, %.lr.ph.i
  %.021.i = phi i32 [ 0, %.lr.ph.i ], [ %20, %14 ]
  %.01620.i = phi i32 [ 0, %.lr.ph.i ], [ %21, %14 ]
  %.01719.i = phi i32 [ 0, %.lr.ph.i ], [ %.1.i, %14 ]
  %15 = load ptr, ptr %13, align 8
  %16 = tail call i32 %15(ptr noundef nonnull %0) #22
  %17 = and i32 %16, 255
  %.not.i = icmp eq i32 %17, 0
  %18 = shl i32 %17, %.021.i
  %19 = select i1 %.not.i, i32 0, i32 %18
  %.1.i = add i32 %19, %.01719.i
  %20 = add i32 %.021.i, 8
  %21 = add i32 %.01620.i, 1
  %22 = sext i32 %21 to i64
  %23 = load i64, ptr %11, align 8
  %24 = icmp ugt i64 %23, %22
  br i1 %24, label %14, label %ReadInt.exit, !llvm.loop !45

ReadInt.exit:                                     ; preds = %14, %10
  %.017.lcssa.i = phi i32 [ 0, %10 ], [ %.1.i, %14 ]
  %25 = sub i32 0, %.017.lcssa.i
  %spec.select.i = select i1 %.015.i, i32 %.017.lcssa.i, i32 %25
  %26 = icmp slt i32 %spec.select.i, 0
  br i1 %26, label %35, label %27

27:                                               ; preds = %ReadInt.exit
  %28 = add nuw i32 %spec.select.i, 1
  %29 = sext i32 %28 to i64
  %30 = tail call ptr @pg_malloc(i64 noundef %29) #22
  %31 = getelementptr inbounds nuw i8, ptr %0, i64 272
  %32 = load ptr, ptr %31, align 8
  %33 = zext nneg i32 %spec.select.i to i64
  tail call void %32(ptr noundef nonnull %0, ptr noundef %30, i64 noundef %33) #22
  %34 = getelementptr inbounds nuw i8, ptr %30, i64 %33
  store i8 0, ptr %34, align 1
  br label %35

35:                                               ; preds = %ReadInt.exit, %27
  %.0 = phi ptr [ %30, %27 ], [ null, %ReadInt.exit ]
  ret ptr %.0
}